target datalayout = "e-m:e-p270:32:32-p271:32:32-p272:64:64-i64:64-i128:128-f80:128-n8:16:32:64-S128"
target triple = "x86_64-pc-linux-gnu"

%struct._object = type { %union.anon, ptr }
%union.anon = type { i64 }

@_Py_NoneStruct = external global %struct._object, align 8

; Function Attrs: nounwind uwtable
define hidden ptr @_PyMp_sem_unlink(ptr noundef %0) #0 {
  %2 = alloca ptr, align 8
  %3 = alloca ptr, align 8
  store ptr %0, ptr %3, align 8, !tbaa !3
  %4 = load ptr, ptr %3, align 8, !tbaa !3
  %5 = call i32 @sem_unlink(ptr noundef %4) #10
  %6 = icmp slt i32 %5, 0
  br i1 %6, label %7, label %9

7:                                                ; preds = %1
  %8 = call ptr @_PyMp_SetError(ptr noundef null, i32 noundef -1)
  store ptr null, ptr %2, align 8
  br label %10

9:                                                ; preds = %1
  store ptr @_Py_NoneStruct, ptr %2, align 8
  br label %10

10:                                               ; preds = %9, %7
  %11 = load ptr, ptr %2, align 8
  ret ptr %11
}