; Function Attrs: nounwind uwtable
define hidden noundef ptr @_PyMp_sem_unlink(ptr noundef %0) local_unnamed_addr #0 {
  %2 = tail call i32 @sem_unlink(ptr noundef %0) #11
  %3 = icmp slt i32 %2, 0
  br i1 %3, label %4, label %6

4:                                                ; preds = %1
  %5 = tail call ptr @_PyMp_SetError(ptr noundef null, i32 noundef -1) #11
  br label %6

6:                                                ; preds = %1, %4
  %.0 = phi ptr [ null, %4 ], [ @_Py_NoneStruct, %1 ]
  ret ptr %.0
}